; Function Attrs: nounwind uwtable
define range(i32 0, 2) i32 @Res_WinCompute(ptr noundef %0, i32 noundef %1, i32 noundef %2, ptr noundef captures(none) initializes((0, 16)) %3) local_unnamed_addr #2 {
  store ptr %0, ptr %3, align 8
  %5 = getelementptr inbounds nuw i8, ptr %3, i64 8
  store i32 %1, ptr %5, align 8
  %6 = getelementptr inbounds nuw i8, ptr %3, i64 12
  store i32 %2, ptr %6, align 4
  %7 = getelementptr inbounds nuw i8, ptr %3, i64 56
  %8 = load ptr, ptr %7, align 8
  %9 = getelementptr inbounds nuw i8, ptr %8, i64 4
  store i32 0, ptr %9, align 4
  %10 = getelementptr inbounds nuw i8, ptr %3, i64 72
  %11 = load ptr, ptr %10, align 8
  %12 = getelementptr inbounds nuw i8, ptr %11, i64 4
  store i32 0, ptr %12, align 4
  %13 = getelementptr inbounds nuw i8, ptr %3, i64 40
  %14 = load ptr, ptr %13, align 8
  %15 = getelementptr inbounds nuw i8, ptr %14, i64 4
  store i32 0, ptr %15, align 4
  %16 = load ptr, ptr %13, align 8
  %17 = getelementptr inbounds nuw i8, ptr %16, i64 4
  %18 = load i32, ptr %17, align 4
  %19 = load i32, ptr %16, align 8
  %20 = icmp eq i32 %18, %19
  br i1 %20, label %21, label %.Vec_PtrGrow.exit11_crit_edge.i

.Vec_PtrGrow.exit11_crit_edge.i:                  ; preds = %4
  %.phi.trans.insert.i = getelementptr inbounds nuw i8, ptr %16, i64 8
  %.pre.i = load ptr, ptr %.phi.trans.insert.i, align 8
  br label %Vec_PtrPush.exit

21:                                               ; preds = %4
  %22 = icmp slt i32 %18, 16
  br i1 %22, label %23, label %31

23:                                               ; preds = %21
  %24 = getelementptr inbounds nuw i8, ptr %16, i64 8
  %25 = load ptr, ptr %24, align 8
  %.not9.i.i = icmp eq ptr %25, null
  br i1 %.not9.i.i, label %28, label %26

26:                                               ; preds = %23
  %27 = tail call dereferenceable_or_null(128) ptr @realloc(ptr noundef nonnull %25, i64 noundef 128) #10
  br label %Vec_PtrGrow.exit.i

28:                                               ; preds = %23
  %29 = tail call noalias dereferenceable_or_null(128) ptr @malloc(i64 noundef 128) #8
  br label %Vec_PtrGrow.exit.i

Vec_PtrGrow.exit.i:                               ; preds = %28, %26
  %30 = phi ptr [ %27, %26 ], [ %29, %28 ]
  store ptr %30, ptr %24, align 8
  store i32 16, ptr %16, align 8
  br label %Vec_PtrPush.exit

31:                                               ; preds = %21
  %32 = shl nuw nsw i32 %18, 1
  %33 = getelementptr inbounds nuw i8, ptr %16, i64 8
  %34 = load ptr, ptr %33, align 8
  %.not9.i10.i = icmp eq ptr %34, null
  %35 = zext nneg i32 %32 to i64
  %36 = shl nuw nsw i64 %35, 3
  br i1 %.not9.i10.i, label %39, label %37

37:                                               ; preds = %31
  %38 = tail call ptr @realloc(ptr noundef nonnull %34, i64 noundef %36) #10
  br label %41

39:                                               ; preds = %31
  %40 = tail call noalias ptr @malloc(i64 noundef %36) #8
  br label %41

41:                                               ; preds = %39, %37
  %42 = phi ptr [ %38, %37 ], [ %40, %39 ]
  store ptr %42, ptr %33, align 8
  store i32 %32, ptr %16, align 8
  br label %Vec_PtrPush.exit

Vec_PtrPush.exit:                                 ; preds = %.Vec_PtrGrow.exit11_crit_edge.i, %Vec_PtrGrow.exit.i, %41
  %43 = phi ptr [ %.pre.i, %.Vec_PtrGrow.exit11_crit_edge.i ], [ %42, %41 ], [ %30, %Vec_PtrGrow.exit.i ]
  %44 = load i32, ptr %17, align 4
  %45 = add nsw i32 %44, 1
  store i32 %45, ptr %17, align 4
  %46 = sext i32 %44 to i64
  %47 = getelementptr inbounds ptr, ptr %43, i64 %46
  store ptr %0, ptr %47, align 8
  %48 = tail call i32 @Res_WinCollectLeavesAndNodes(ptr noundef nonnull %3)
  %.not = icmp eq i32 %48, 0
  br i1 %.not, label %Res_WinFinalizeRoots.exit.thread, label %49

49:                                               ; preds = %Vec_PtrPush.exit
  %50 = load i32, ptr %6, align 4
  %51 = icmp sgt i32 %50, 0
  br i1 %51, label %52, label %Res_WinFinalizeRoots.exit.thread

52:                                               ; preds = %49
  %53 = tail call i32 @Res_WinComputeRoots(ptr noundef nonnull %3)
  %.not17 = icmp eq i32 %53, 0
  br i1 %.not17, label %Res_WinFinalizeRoots.exit.thread, label %54

54:                                               ; preds = %52
  tail call void @Res_WinMarkPaths(ptr noundef nonnull %3)
  %55 = load ptr, ptr %3, align 8
  %.val7.i = load ptr, ptr %55, align 8
  %56 = getelementptr i8, ptr %55, i64 16
  %.val8.i = load i32, ptr %56, align 8
  %57 = getelementptr inbounds nuw i8, ptr %.val7.i, i64 216
  %58 = load i32, ptr %57, align 8
  %59 = getelementptr inbounds nuw i8, ptr %.val7.i, i64 224
  %60 = add nsw i32 %.val8.i, 1
  tail call fastcc void @Vec_IntFillExtra(ptr noundef nonnull %59, i32 noundef %60)
  %61 = getelementptr i8, ptr %.val7.i, i64 232
  %.val.i.i.i.i = load ptr, ptr %61, align 8
  %62 = sext i32 %.val8.i to i64
  %63 = getelementptr inbounds i32, ptr %.val.i.i.i.i, i64 %62
  store i32 %58, ptr %63, align 4
  %64 = load ptr, ptr %13, align 8
  %65 = getelementptr inbounds nuw i8, ptr %64, i64 4
  store i32 0, ptr %65, align 4
  %66 = load ptr, ptr %3, align 8
  %67 = load ptr, ptr %13, align 8
  tail call void @Res_WinFinalizeRoots_rec(ptr noundef %66, ptr noundef %67)
  %68 = load ptr, ptr %13, align 8
  %69 = getelementptr i8, ptr %68, i64 4
  %.val.i = load i32, ptr %69, align 4
  %70 = icmp eq i32 %.val.i, 1
  br i1 %70, label %71, label %Res_WinFinalizeRoots.exit

71:                                               ; preds = %54
  %72 = getelementptr i8, ptr %68, i64 8
  %.val9.i = load ptr, ptr %72, align 8
  %73 = load ptr, ptr %.val9.i, align 8
  %74 = load ptr, ptr %3, align 8
  %75 = icmp eq ptr %73, %74
  br i1 %75, label %Res_WinFinalizeRoots.exit.thread, label %Res_WinFinalizeRoots.exit

Res_WinFinalizeRoots.exit:                        ; preds = %71, %54
  tail call void @Res_WinAddMissing(ptr noundef nonnull %3)
  br label %Res_WinFinalizeRoots.exit.thread

Res_WinFinalizeRoots.exit.thread:                 ; preds = %71, %49, %52, %Res_WinFinalizeRoots.exit, %Vec_PtrPush.exit
  %.0 = phi i32 [ 0, %Vec_PtrPush.exit ], [ 1, %Res_WinFinalizeRoots.exit ], [ 1, %52 ], [ 1, %49 ], [ 1, %71 ]
  ret i32 %.0
}